target datalayout = "e-m:e-p270:32:32-p271:32:32-p272:64:64-i64:64-i128:128-f80:128-n8:16:32:64-S128"
target triple = "x86_64-pc-linux-gnu"

%struct.Dsd_Cache_t_ = type { ptr, i32, i32, i32 }
%struct.Dsd_Entry_t_ = type { [5 x ptr] }

@pCache = internal global ptr null, align 8

; Function Attrs: nounwind uwtable
define void @Dsd_CheckCacheClear() #0 {
  %1 = alloca i32, align 4
  call void @llvm.lifetime.start.p0(i64 4, ptr %1) #7
  store i32 0, ptr %1, align 4, !tbaa !3
  br label %2

2:                                                ; preds = %15, %0
  %3 = load i32, ptr %1, align 4, !tbaa !3
  %4 = load ptr, ptr @pCache, align 8, !tbaa !7
  %5 = getelementptr inbounds nuw %struct.Dsd_Cache_t_, ptr %4, i32 0, i32 1
  %6 = load i32, ptr %5, align 8, !tbaa !10
  %7 = icmp slt i32 %3, %6
  br i1 %7, label %8, label %18

8:                                                ; preds = %2
  %9 = load ptr, ptr @pCache, align 8, !tbaa !7
  %10 = getelementptr inbounds nuw %struct.Dsd_Cache_t_, ptr %9, i32 0, i32 0
  %11 = load ptr, ptr %10, align 8, !tbaa !13
  %12 = getelementptr inbounds %struct.Dsd_Entry_t_, ptr %11, i64 0
  %13 = getelementptr inbounds nuw %struct.Dsd_Entry_t_, ptr %12, i32 0, i32 0
  %14 = getelementptr inbounds [5 x ptr], ptr %13, i64 0, i64 0
  store ptr null, ptr %14, align 8, !tbaa !17
  br label %15

15:                                               ; preds = %8
  %16 = load i32, ptr %1, align 4, !tbaa !3
  %17 = add nsw i32 %16, 1
  store i32 %17, ptr %1, align 4, !tbaa !3
  br label %2, !llvm.loop !19

18:                                               ; preds = %2
  call void @llvm.lifetime.end.p0(i64 4, ptr %1) #7
  ret void
}

; Function Attrs: nounwind uwtable
define void @Dsd_CheckCacheDeallocate() #0 {
  %1 = load ptr, ptr @pCache, align 8, !tbaa !7
  %2 = getelementptr inbounds nuw %struct.Dsd_Cache_t_, ptr %1, i32 0, i32 0
  %3 = load ptr, ptr %2, align 8, !tbaa !13
  %4 = icmp ne ptr %3, null
  br i1 %4, label %5, label %11

5:                                                ; preds = %0
  %6 = load ptr, ptr @pCache, align 8, !tbaa !7
  %7 = getelementptr inbounds nuw %struct.Dsd_Cache_t_, ptr %6, i32 0, i32 0
  %8 = load ptr, ptr %7, align 8, !tbaa !13
  call void @free(ptr noundef %8) #7
  %9 = load ptr, ptr @pCache, align 8, !tbaa !7
  %10 = getelementptr inbounds nuw %struct.Dsd_Cache_t_, ptr %9, i32 0, i32 0
  store ptr null, ptr %10, align 8, !tbaa !13
  br label %12

11:                                               ; preds = %0
  br label %12

12:                                               ; preds = %11, %5
  %13 = load ptr, ptr @pCache, align 8, !tbaa !7
  %14 = icmp ne ptr %13, null
  br i1 %14, label %15, label %17

15:                                               ; preds = %12
  %16 = load ptr, ptr @pCache, align 8, !tbaa !7
  call void @free(ptr noundef %16) #7
  store ptr null, ptr @pCache, align 8, !tbaa !7
  br label %18

17:                                               ; preds = %12
  br label %18

18:                                               ; preds = %17, %15
  ret void
}

; Function Attrs: inlinehint nounwind uwtable
define internal i32 @Abc_PrimeCudd(i32 noundef %0) #4 {
  %2 = alloca i32, align 4
  %3 = alloca i32, align 4
  %4 = alloca i32, align 4
  store i32 %0, ptr %2, align 4, !tbaa !3
  call void @llvm.lifetime.start.p0(i64 4, ptr %3) #7
  call void @llvm.lifetime.start.p0(i64 4, ptr %4) #7
  %5 = load i32, ptr %2, align 4, !tbaa !3
  %6 = add i32 %5, -1
  store i32 %6, ptr %2, align 4, !tbaa !3
  br label %7

7:                                                ; preds = %32, %1
  %8 = load i32, ptr %2, align 4, !tbaa !3
  %9 = add i32 %8, 1
  store i32 %9, ptr %2, align 4, !tbaa !3
  %10 = load i32, ptr %2, align 4, !tbaa !3
  %11 = and i32 %10, 1
  %12 = icmp ne i32 %11, 0
  br i1 %12, label %13, label %30

13:                                               ; preds = %7
  store i32 1, ptr %4, align 4, !tbaa !3
  store i32 3, ptr %3, align 4, !tbaa !3
  br label %14

14:                                               ; preds = %26, %13
  %15 = load i32, ptr %3, align 4, !tbaa !3
  %16 = load i32, ptr %3, align 4, !tbaa !3
  %17 = mul nsw i32 %15, %16
  %18 = load i32, ptr %2, align 4, !tbaa !3
  %19 = icmp ule i32 %17, %18
  br i1 %19, label %20, label %29

20:                                               ; preds = %14
  %21 = load i32, ptr %2, align 4, !tbaa !3
  %22 = load i32, ptr %3, align 4, !tbaa !3
  %23 = urem i32 %21, %22
  %24 = icmp eq i32 %23, 0
  br i1 %24, label %25, label %26

25:                                               ; preds = %20
  store i32 0, ptr %4, align 4, !tbaa !3
  br label %29

26:                                               ; preds = %20
  %27 = load i32, ptr %3, align 4, !tbaa !3
  %28 = add nsw i32 %27, 2
  store i32 %28, ptr %3, align 4, !tbaa !3
  br label %14, !llvm.loop !14

29:                                               ; preds = %25, %14
  br label %31

30:                                               ; preds = %7
  store i32 0, ptr %4, align 4, !tbaa !3
  br label %31

31:                                               ; preds = %30, %29
  br label %32

32:                                               ; preds = %31
  %33 = load i32, ptr %4, align 4, !tbaa !3
  %34 = icmp ne i32 %33, 0
  %35 = xor i1 %34, true
  br i1 %35, label %7, label %36, !llvm.loop !16

36:                                               ; preds = %32
  %37 = load i32, ptr %2, align 4, !tbaa !3
  call void @llvm.lifetime.end.p0(i64 4, ptr %4) #7
  call void @llvm.lifetime.end.p0(i64 4, ptr %3) #7
  ret i32 %37
}

; Function Attrs: nounwind uwtable
define void @Dsd_CheckCacheAllocate(i32 noundef %0) #0 {
  %2 = alloca i32, align 4
  %3 = alloca i32, align 4
  store i32 %0, ptr %2, align 4, !tbaa !3
  call void @llvm.lifetime.start.p0(i64 4, ptr %3) #7
  %4 = call noalias ptr @malloc(i64 noundef 24) #8
  store ptr %4, ptr @pCache, align 8, !tbaa !7
  %5 = load ptr, ptr @pCache, align 8, !tbaa !7
  call void @llvm.memset.p0.i64(ptr align 8 %5, i8 0, i64 24, i1 false)
  %6 = load i32, ptr %2, align 4, !tbaa !3
  %7 = call i32 @Abc_PrimeCudd(i32 noundef %6)
  store i32 %7, ptr %3, align 4, !tbaa !3
  %8 = load ptr, ptr @pCache, align 8, !tbaa !7
  %9 = getelementptr inbounds nuw %struct.Dsd_Cache_t_, ptr %8, i32 0, i32 1
  %10 = load i32, ptr %9, align 8, !tbaa !10
  %11 = load i32, ptr %3, align 4, !tbaa !3
  %12 = icmp ne i32 %10, %11
  br i1 %12, label %13, label %29

13:                                               ; preds = %1
  %14 = load ptr, ptr @pCache, align 8, !tbaa !7
  %15 = getelementptr inbounds nuw %struct.Dsd_Cache_t_, ptr %14, i32 0, i32 1
  %16 = load i32, ptr %15, align 8, !tbaa !10
  %17 = icmp ne i32 %16, 0
  br i1 %17, label %18, label %19

18:                                               ; preds = %13
  call void @Dsd_CheckCacheDeallocate()
  br label %19

19:                                               ; preds = %18, %13
  %20 = load i32, ptr %3, align 4, !tbaa !3
  %21 = load ptr, ptr @pCache, align 8, !tbaa !7
  %22 = getelementptr inbounds nuw %struct.Dsd_Cache_t_, ptr %21, i32 0, i32 1
  store i32 %20, ptr %22, align 8, !tbaa !10
  %23 = load i32, ptr %3, align 4, !tbaa !3
  %24 = sext i32 %23 to i64
  %25 = mul i64 40, %24
  %26 = call noalias ptr @malloc(i64 noundef %25) #8
  %27 = load ptr, ptr @pCache, align 8, !tbaa !7
  %28 = getelementptr inbounds nuw %struct.Dsd_Cache_t_, ptr %27, i32 0, i32 0
  store ptr %26, ptr %28, align 8, !tbaa !13
  br label %29

29:                                               ; preds = %19, %1
  call void @Dsd_CheckCacheClear()
  call void @llvm.lifetime.end.p0(i64 4, ptr %3) #7
  ret void
}