; Function Attrs: nofree nounwind memory(write, argmem: none, inaccessiblemem: readwrite) uwtable
define void @Dsd_CheckCacheAllocate(i32 noundef %0) local_unnamed_addr #0 {
  %calloc = tail call dereferenceable_or_null(24) ptr @calloc(i64 1, i64 24)
  store ptr %calloc, ptr @pCache, align 8, !tbaa !3
  %2 = add i32 %0, -1
  br label %.loopexit.i

.loopexit.i:                                      ; preds = %.loopexit.i.backedge, %1
  %.012.i = phi i32 [ %2, %1 ], [ %3, %.loopexit.i.backedge ]
  %3 = add i32 %.012.i, 1
  %4 = and i32 %.012.i, 1
  %.not.not.i = icmp eq i32 %4, 0
  br i1 %.not.not.i, label %.preheader.i, label %.loopexit.i.backedge

.loopexit.i.backedge:                             ; preds = %.lr.ph.i, %.loopexit.i
  br label %.loopexit.i, !llvm.loop !8

.preheader.i:                                     ; preds = %.loopexit.i
  %.not15.i = icmp ult i32 %3, 9
  br i1 %.not15.i, label %.loopexit, label %.lr.ph.i

5:                                                ; preds = %.lr.ph.i
  %6 = add nuw nsw i32 %.01116.i, 2
  %7 = mul nuw nsw i32 %6, %6
  %.not.i = icmp ugt i32 %7, %3
  br i1 %.not.i, label %.loopexit, label %.lr.ph.i, !llvm.loop !10

.lr.ph.i:                                         ; preds = %.preheader.i, %5
  %.01116.i = phi i32 [ %6, %5 ], [ 3, %.preheader.i ]
  %8 = urem i32 %3, %.01116.i
  %9 = icmp eq i32 %8, 0
  br i1 %9, label %.loopexit.i.backedge, label %5, !llvm.loop !8

.loopexit:                                        ; preds = %.preheader.i, %5
  %10 = getelementptr inbounds nuw i8, ptr %calloc, i64 8
  store i32 %3, ptr %10, align 8, !tbaa !11
  %11 = sext i32 %3 to i64
  %12 = mul nsw i64 %11, 40
  %13 = tail call noalias ptr @malloc(i64 noundef %12) #11
  store ptr %13, ptr %calloc, align 8, !tbaa !15
  %14 = icmp ult i32 %.012.i, 2147483647
  br i1 %14, label %.lr.ph.i7, label %Dsd_CheckCacheClear.exit

.lr.ph.i7:                                        ; preds = %.loopexit
  store ptr null, ptr %13, align 8, !tbaa !16
  br label %Dsd_CheckCacheClear.exit

Dsd_CheckCacheClear.exit:                         ; preds = %.loopexit, %.lr.ph.i7
  ret void
}